; Function Attrs: mustprogress uwtable
define internal void @_ZNK19OpenColorIO_v2_4dev12_GLOBAL__N_18OpWriter19writeFormatMetadataEv(ptr noundef nonnull align 8 dereferenceable(24) %this) unnamed_addr #4 align 2 personality ptr @__gxx_personality_v0 {
entry:
  %op = alloca %"class.std::shared_ptr.28", align 8
  %desc = alloca %"class.std::vector.14", align 8
  %ref.tmp = alloca %"class.std::__cxx11::basic_string", align 8
  %ref.tmp4 = alloca %"class.std::allocator", align 1
  %vtable = load ptr, ptr %this, align 8
  %vfn = getelementptr inbounds i8, ptr %vtable, i64 24
  %0 = load ptr, ptr %vfn, align 8
  call void %0(ptr nonnull sret(%"class.std::shared_ptr.28") align 8 %op, ptr noundef nonnull align 8 dereferenceable(24) %this)
  call void @llvm.memset.p0.i64(ptr noundef nonnull align 8 dereferenceable(24) %desc, i8 0, i64 24, i1 false)
  %1 = load ptr, ptr %op, align 8
  %m_metadata.i = getelementptr inbounds i8, ptr %1, i64 48
  %call3 = call noundef nonnull align 8 dereferenceable(24) ptr @_ZNK19OpenColorIO_v2_4dev18FormatMetadataImpl19getChildrenElementsEv(ptr noundef nonnull align 8 dereferenceable(120) %m_metadata.i) #25
  call void @_ZNSaIcEC1Ev(ptr noundef nonnull align 1 dereferenceable(1) %ref.tmp4) #25
  invoke void @_ZNSt7__cxx1112basic_stringIcSt11char_traitsIcESaIcEEC1EPKcRKS3_(ptr noundef nonnull align 8 dereferenceable(32) %ref.tmp, ptr noundef nonnull @_ZN19OpenColorIO_v2_4devL15TAG_DESCRIPTIONE, ptr noundef nonnull align 1 dereferenceable(1) %ref.tmp4)
          to label %invoke.cont6 unwind label %lpad5

invoke.cont6:                                     ; preds = %entry
  invoke void @_ZN19OpenColorIO_v2_4dev17GetElementsValuesERKSt6vectorINS_18FormatMetadataImplESaIS1_EERKNSt7__cxx1112basic_stringIcSt11char_traitsIcESaIcEEERS0_ISB_SaISB_EE(ptr noundef nonnull align 8 dereferenceable(24) %call3, ptr noundef nonnull align 8 dereferenceable(32) %ref.tmp, ptr noundef nonnull align 8 dereferenceable(24) %desc)
          to label %invoke.cont8 unwind label %lpad7

invoke.cont8:                                     ; preds = %invoke.cont6
  call void @_ZNSt7__cxx1112basic_stringIcSt11char_traitsIcESaIcEED1Ev(ptr noundef nonnull align 8 dereferenceable(32) %ref.tmp) #25
  call void @_ZNSaIcED1Ev(ptr noundef nonnull align 1 dereferenceable(1) %ref.tmp4) #25
  %m_formatter = getelementptr inbounds i8, ptr %this, i64 8
  %2 = load ptr, ptr %m_formatter, align 8
  %desc.val = load ptr, ptr %desc, align 8
  %3 = getelementptr inbounds i8, ptr %desc, i64 8
  %desc.val4 = load ptr, ptr %3, align 8
  invoke fastcc void @_ZN19OpenColorIO_v2_4dev12_GLOBAL__N_117WriteDescriptionsERNS_12XmlFormatterEPKcRKSt6vectorINSt7__cxx1112basic_stringIcSt11char_traitsIcESaIcEEESaISB_EE(ptr noundef nonnull align 8 dereferenceable(16) %2, ptr noundef nonnull @_ZN19OpenColorIO_v2_4devL15TAG_DESCRIPTIONE, ptr %desc.val, ptr %desc.val4)
          to label %invoke.cont9 unwind label %lpad

invoke.cont9:                                     ; preds = %invoke.cont8
  %4 = load ptr, ptr %desc, align 8
  %5 = load ptr, ptr %3, align 8
  %cmp.not3.i.i.i.i = icmp eq ptr %4, %5
  br i1 %cmp.not3.i.i.i.i, label %invoke.cont.i, label %for.body.i.i.i.i

for.body.i.i.i.i:                                 ; preds = %invoke.cont9, %for.body.i.i.i.i
  %__first.addr.04.i.i.i.i = phi ptr [ %incdec.ptr.i.i.i.i, %for.body.i.i.i.i ], [ %4, %invoke.cont9 ]
  call void @_ZNSt7__cxx1112basic_stringIcSt11char_traitsIcESaIcEED1Ev(ptr noundef nonnull align 8 dereferenceable(32) %__first.addr.04.i.i.i.i) #25
  %incdec.ptr.i.i.i.i = getelementptr inbounds i8, ptr %__first.addr.04.i.i.i.i, i64 32
  %cmp.not.i.i.i.i = icmp eq ptr %incdec.ptr.i.i.i.i, %5
  br i1 %cmp.not.i.i.i.i, label %invoke.contthread-pre-split.i, label %for.body.i.i.i.i, !llvm.loop !6

invoke.contthread-pre-split.i:                    ; preds = %for.body.i.i.i.i
  %.pr.i = load ptr, ptr %desc, align 8
  br label %invoke.cont.i

invoke.cont.i:                                    ; preds = %invoke.contthread-pre-split.i, %invoke.cont9
  %6 = phi ptr [ %.pr.i, %invoke.contthread-pre-split.i ], [ %4, %invoke.cont9 ]
  %tobool.not.i.i.i = icmp eq ptr %6, null
  br i1 %tobool.not.i.i.i, label %_ZNSt6vectorINSt7__cxx1112basic_stringIcSt11char_traitsIcESaIcEEESaIS5_EED2Ev.exit, label %if.then.i.i.i

if.then.i.i.i:                                    ; preds = %invoke.cont.i
  call void @_ZdlPv(ptr noundef nonnull %6) #27
  br label %_ZNSt6vectorINSt7__cxx1112basic_stringIcSt11char_traitsIcESaIcEEESaIS5_EED2Ev.exit

_ZNSt6vectorINSt7__cxx1112basic_stringIcSt11char_traitsIcESaIcEEESaIS5_EED2Ev.exit: ; preds = %invoke.cont.i, %if.then.i.i.i
  %_M_refcount.i.i = getelementptr inbounds i8, ptr %op, i64 8
  %7 = load ptr, ptr %_M_refcount.i.i, align 8
  %cmp.not.i.i.i = icmp eq ptr %7, null
  br i1 %cmp.not.i.i.i, label %_ZNSt10shared_ptrIKN19OpenColorIO_v2_4dev6OpDataEED2Ev.exit, label %if.then.i.i.i5

if.then.i.i.i5:                                   ; preds = %_ZNSt6vectorINSt7__cxx1112basic_stringIcSt11char_traitsIcESaIcEEESaIS5_EED2Ev.exit
  %_M_use_count.i.i.i.i = getelementptr inbounds i8, ptr %7, i64 8
  %8 = load atomic i64, ptr %_M_use_count.i.i.i.i acquire, align 8
  %cmp.i.i.i.i = icmp eq i64 %8, 4294967297
  %9 = trunc i64 %8 to i32
  br i1 %cmp.i.i.i.i, label %if.then.i.i.i.i, label %if.end.i.i.i.i

if.then.i.i.i.i:                                  ; preds = %if.then.i.i.i5
  store i32 0, ptr %_M_use_count.i.i.i.i, align 8
  %_M_weak_count.i.i.i.i = getelementptr inbounds i8, ptr %7, i64 12
  store i32 0, ptr %_M_weak_count.i.i.i.i, align 4
  %vtable.i.i.i.i = load ptr, ptr %7, align 8
  %vfn.i.i.i.i = getelementptr inbounds i8, ptr %vtable.i.i.i.i, i64 16
  %10 = load ptr, ptr %vfn.i.i.i.i, align 8
  call void %10(ptr noundef nonnull align 8 dereferenceable(16) %7) #25
  br label %if.end8.sink.split.i.i.i.i

if.end.i.i.i.i:                                   ; preds = %if.then.i.i.i5
  %11 = load i8, ptr @__libc_single_threaded, align 1
  %tobool.i.i.not.i.i.i.i = icmp eq i8 %11, 0
  br i1 %tobool.i.i.not.i.i.i.i, label %if.else.i.i.i.i.i, label %if.then.i.i.i.i.i

if.then.i.i.i.i.i:                                ; preds = %if.end.i.i.i.i
  %add.i.i.i.i.i = add nsw i32 %9, -1
  store i32 %add.i.i.i.i.i, ptr %_M_use_count.i.i.i.i, align 4
  br label %_ZN9__gnu_cxx27__exchange_and_add_dispatchEPii.exit.i.i.i.i

if.else.i.i.i.i.i:                                ; preds = %if.end.i.i.i.i
  %12 = atomicrmw volatile add ptr %_M_use_count.i.i.i.i, i32 -1 acq_rel, align 4
  br label %_ZN9__gnu_cxx27__exchange_and_add_dispatchEPii.exit.i.i.i.i

_ZN9__gnu_cxx27__exchange_and_add_dispatchEPii.exit.i.i.i.i: ; preds = %if.else.i.i.i.i.i, %if.then.i.i.i.i.i
  %retval.i.0.i.i.i.i = phi i32 [ %9, %if.then.i.i.i.i.i ], [ %12, %if.else.i.i.i.i.i ]
  %cmp6.i.i.i.i = icmp eq i32 %retval.i.0.i.i.i.i, 1
  br i1 %cmp6.i.i.i.i, label %if.then7.i.i.i.i, label %_ZNSt10shared_ptrIKN19OpenColorIO_v2_4dev6OpDataEED2Ev.exit

if.then7.i.i.i.i:                                 ; preds = %_ZN9__gnu_cxx27__exchange_and_add_dispatchEPii.exit.i.i.i.i
  %vtable.i.i.i.i.i.i = load ptr, ptr %7, align 8
  %vfn.i.i.i.i.i.i = getelementptr inbounds i8, ptr %vtable.i.i.i.i.i.i, i64 16
  %13 = load ptr, ptr %vfn.i.i.i.i.i.i, align 8
  call void %13(ptr noundef nonnull align 8 dereferenceable(16) %7) #25
  %_M_weak_count.i.i.i.i.i.i = getelementptr inbounds i8, ptr %7, i64 12
  %14 = load i8, ptr @__libc_single_threaded, align 1
  %tobool.i.i.not.i.i.i.i.i.i = icmp eq i8 %14, 0
  br i1 %tobool.i.i.not.i.i.i.i.i.i, label %if.else.i.i.i.i.i.i.i, label %if.then.i.i.i.i.i.i.i

if.then.i.i.i.i.i.i.i:                            ; preds = %if.then7.i.i.i.i
  %15 = load i32, ptr %_M_weak_count.i.i.i.i.i.i, align 4
  %add.i.i.i.i.i.i.i = add nsw i32 %15, -1
  store i32 %add.i.i.i.i.i.i.i, ptr %_M_weak_count.i.i.i.i.i.i, align 4
  br label %_ZN9__gnu_cxx27__exchange_and_add_dispatchEPii.exit.i.i.i.i.i.i

if.else.i.i.i.i.i.i.i:                            ; preds = %if.then7.i.i.i.i
  %16 = atomicrmw volatile add ptr %_M_weak_count.i.i.i.i.i.i, i32 -1 acq_rel, align 4
  br label %_ZN9__gnu_cxx27__exchange_and_add_dispatchEPii.exit.i.i.i.i.i.i

_ZN9__gnu_cxx27__exchange_and_add_dispatchEPii.exit.i.i.i.i.i.i: ; preds = %if.else.i.i.i.i.i.i.i, %if.then.i.i.i.i.i.i.i
  %retval.i.0.i.i.i.i.i.i = phi i32 [ %15, %if.then.i.i.i.i.i.i.i ], [ %16, %if.else.i.i.i.i.i.i.i ]
  %cmp.i.i.i.i.i.i = icmp eq i32 %retval.i.0.i.i.i.i.i.i, 1
  br i1 %cmp.i.i.i.i.i.i, label %if.end8.sink.split.i.i.i.i, label %_ZNSt10shared_ptrIKN19OpenColorIO_v2_4dev6OpDataEED2Ev.exit

if.end8.sink.split.i.i.i.i:                       ; preds = %_ZN9__gnu_cxx27__exchange_and_add_dispatchEPii.exit.i.i.i.i.i.i, %if.then.i.i.i.i
  %vtable2.i.i.i.i.i.i = load ptr, ptr %7, align 8
  %vfn3.i.i.i.i.i.i = getelementptr inbounds i8, ptr %vtable2.i.i.i.i.i.i, i64 24
  %17 = load ptr, ptr %vfn3.i.i.i.i.i.i, align 8
  call void %17(ptr noundef nonnull align 8 dereferenceable(16) %7) #25
  br label %_ZNSt10shared_ptrIKN19OpenColorIO_v2_4dev6OpDataEED2Ev.exit

_ZNSt10shared_ptrIKN19OpenColorIO_v2_4dev6OpDataEED2Ev.exit: ; preds = %_ZNSt6vectorINSt7__cxx1112basic_stringIcSt11char_traitsIcESaIcEEESaIS5_EED2Ev.exit, %_ZN9__gnu_cxx27__exchange_and_add_dispatchEPii.exit.i.i.i.i, %_ZN9__gnu_cxx27__exchange_and_add_dispatchEPii.exit.i.i.i.i.i.i, %if.end8.sink.split.i.i.i.i
  ret void

lpad:                                             ; preds = %invoke.cont8
  %18 = landingpad { ptr, i32 }
          cleanup
  br label %ehcleanup10

lpad5:                                            ; preds = %entry
  %19 = landingpad { ptr, i32 }
          cleanup
  br label %ehcleanup

lpad7:                                            ; preds = %invoke.cont6
  %20 = landingpad { ptr, i32 }
          cleanup
  call void @_ZNSt7__cxx1112basic_stringIcSt11char_traitsIcESaIcEED1Ev(ptr noundef nonnull align 8 dereferenceable(32) %ref.tmp) #25
  br label %ehcleanup

ehcleanup:                                        ; preds = %lpad7, %lpad5
  %.pn = phi { ptr, i32 } [ %20, %lpad7 ], [ %19, %lpad5 ]
  call void @_ZNSaIcED1Ev(ptr noundef nonnull align 1 dereferenceable(1) %ref.tmp4) #25
  br label %ehcleanup10

ehcleanup10:                                      ; preds = %ehcleanup, %lpad
  %.pn2 = phi { ptr, i32 } [ %18, %lpad ], [ %.pn, %ehcleanup ]
  call void @_ZNSt6vectorINSt7__cxx1112basic_stringIcSt11char_traitsIcESaIcEEESaIS5_EED2Ev(ptr noundef nonnull align 8 dereferenceable(24) %desc) #25
  call void @_ZNSt10shared_ptrIKN19OpenColorIO_v2_4dev6OpDataEED2Ev(ptr noundef nonnull align 8 dereferenceable(16) %op) #25
  resume { ptr, i32 } %.pn2
}